; Function Attrs: mustprogress uwtable
define void @_ZN2cv3hal19cvtTwoPlaneYUVtoBGREPKhmPhmiiibi(ptr noundef %0, i64 noundef %1, ptr noundef %2, i64 noundef %3, i32 noundef %4, i32 noundef %5, i32 noundef %6, i1 noundef zeroext %7, i32 noundef %8) local_unnamed_addr #0 personality ptr @__gxx_personality_v0 {
  %10 = alloca %"class.cv::utils::trace::details::Region", align 8
  %11 = alloca %"class.cv::utils::trace::details::Region", align 8
  call void @_ZN2cv5utils5trace7details6RegionC1ERKNS3_21LocationStaticStorageE(ptr noundef nonnull align 8 dereferenceable(12) %11, ptr noundef nonnull align 8 dereferenceable(32) @_ZZN2cv3hal19cvtTwoPlaneYUVtoBGREPKhmPhmiiibiE25__cv_trace_location_fn126)
  call void @llvm.lifetime.start.p0(i64 16, ptr nonnull %10)
  invoke void @_ZN2cv5utils5trace7details6RegionC1ERKNS3_21LocationStaticStorageE(ptr noundef nonnull align 8 dereferenceable(12) %10, ptr noundef nonnull align 8 dereferenceable(32) @_ZZN2cv3hal19cvtTwoPlaneYUVtoBGREPKhmS2_mPhmiiibiE25__cv_trace_location_fn156)
          to label %.noexc unwind label %12

12:                                               ; preds = %9
  %13 = landingpad { ptr, i32 }
          cleanup
  br label %.body

.noexc:                                           ; preds = %9
  %14 = sext i32 %5 to i64
  %15 = mul i64 %14, %1
  %16 = getelementptr inbounds i8, ptr %0, i64 %15
  invoke void @_ZN2cv3hal12cpu_baseline19cvtTwoPlaneYUVtoBGREPKhmS3_mPhmiiibi(ptr noundef %0, i64 noundef %1, ptr noundef %16, i64 noundef %1, ptr noundef %2, i64 noundef %3, i32 noundef %4, i32 noundef %5, i32 noundef %6, i1 noundef zeroext %7, i32 noundef %8)
          to label %17 unwind label %24

17:                                               ; preds = %.noexc
  %18 = getelementptr inbounds i8, ptr %10, i64 8
  %19 = load i32, ptr %18, align 8
  %.not.i.i = icmp eq i32 %19, 0
  br i1 %.not.i.i, label %26, label %20

20:                                               ; preds = %17
  invoke void @_ZN2cv5utils5trace7details6Region7destroyEv(ptr noundef nonnull align 8 dereferenceable(12) %10)
          to label %26 unwind label %21

21:                                               ; preds = %20
  %22 = landingpad { ptr, i32 }
          catch ptr null
  %23 = extractvalue { ptr, i32 } %22, 0
  call void @__clang_call_terminate(ptr %23) #13
  unreachable

24:                                               ; preds = %.noexc
  %25 = landingpad { ptr, i32 }
          cleanup
  call void @_ZN2cv5utils5trace7details6RegionD2Ev(ptr noundef nonnull align 8 dereferenceable(12) %10) #12
  br label %.body

26:                                               ; preds = %20, %17
  call void @llvm.lifetime.end.p0(i64 16, ptr nonnull %10)
  %27 = getelementptr inbounds i8, ptr %11, i64 8
  %28 = load i32, ptr %27, align 8
  %.not.i = icmp eq i32 %28, 0
  br i1 %.not.i, label %_ZN2cv5utils5trace7details6RegionD2Ev.exit, label %29

29:                                               ; preds = %26
  invoke void @_ZN2cv5utils5trace7details6Region7destroyEv(ptr noundef nonnull align 8 dereferenceable(12) %11)
          to label %_ZN2cv5utils5trace7details6RegionD2Ev.exit unwind label %30

30:                                               ; preds = %29
  %31 = landingpad { ptr, i32 }
          catch ptr null
  %32 = extractvalue { ptr, i32 } %31, 0
  call void @__clang_call_terminate(ptr %32) #13
  unreachable

_ZN2cv5utils5trace7details6RegionD2Ev.exit:       ; preds = %26, %29
  ret void

.body:                                            ; preds = %12, %24
  %.pn = phi { ptr, i32 } [ %13, %12 ], [ %25, %24 ]
  call void @_ZN2cv5utils5trace7details6RegionD2Ev(ptr noundef nonnull align 8 dereferenceable(12) %11) #12
  resume { ptr, i32 } %.pn
}